target datalayout = "e-m:e-p270:32:32-p271:32:32-p272:64:64-i64:64-i128:128-f80:128-n8:16:32:64-S128"
target triple = "x86_64-pc-linux-gnu"

%struct.SDL_Gamepad = type { ptr, i32, ptr, i32, i32, ptr, i32, ptr, ptr, ptr, i64, ptr }

@SDL_gamepads = internal global ptr null, align 8

; Function Attrs: nounwind uwtable
define hidden void @SDL_CloseGamepad_REAL(ptr noundef %0) #0 {
  %2 = alloca ptr, align 8
  %3 = alloca ptr, align 8
  %4 = alloca ptr, align 8
  %5 = alloca i32, align 4
  store ptr %0, ptr %2, align 8
  call void @llvm.lifetime.start.p0(i64 8, ptr %3) #8
  call void @llvm.lifetime.start.p0(i64 8, ptr %4) #8
  call void @SDL_LockJoysticks_REAL()
  %6 = load ptr, ptr %2, align 8
  %7 = call zeroext i1 @SDL_ObjectValid(ptr noundef %6, i32 noundef 5)
  br i1 %7, label %9, label %8

8:                                                ; preds = %1
  call void @SDL_UnlockJoysticks_REAL()
  store i32 1, ptr %5, align 4
  br label %59

9:                                                ; preds = %1
  %10 = load ptr, ptr %2, align 8
  %11 = getelementptr inbounds nuw %struct.SDL_Gamepad, ptr %10, i32 0, i32 1
  %12 = load i32, ptr %11, align 8
  %13 = add nsw i32 %12, -1
  store i32 %13, ptr %11, align 8
  %14 = icmp sgt i32 %13, 0
  br i1 %14, label %15, label %16

15:                                               ; preds = %9
  call void @SDL_UnlockJoysticks_REAL()
  store i32 1, ptr %5, align 4
  br label %59

16:                                               ; preds = %9
  %17 = load ptr, ptr %2, align 8
  %18 = getelementptr inbounds nuw %struct.SDL_Gamepad, ptr %17, i32 0, i32 0
  %19 = load ptr, ptr %18, align 8
  call void @SDL_CloseJoystick_REAL(ptr noundef %19)
  %20 = load ptr, ptr @SDL_gamepads, align 8
  store ptr %20, ptr %3, align 8
  store ptr null, ptr %4, align 8
  br label %21

21:                                               ; preds = %42, %16
  %22 = load ptr, ptr %3, align 8
  %23 = icmp ne ptr %22, null
  br i1 %23, label %24, label %47

24:                                               ; preds = %21
  %25 = load ptr, ptr %2, align 8
  %26 = load ptr, ptr %3, align 8
  %27 = icmp eq ptr %25, %26
  br i1 %27, label %28, label %42

28:                                               ; preds = %24
  %29 = load ptr, ptr %4, align 8
  %30 = icmp ne ptr %29, null
  br i1 %30, label %31, label %37

31:                                               ; preds = %28
  %32 = load ptr, ptr %3, align 8
  %33 = getelementptr inbounds nuw %struct.SDL_Gamepad, ptr %32, i32 0, i32 11
  %34 = load ptr, ptr %33, align 8
  %35 = load ptr, ptr %4, align 8
  %36 = getelementptr inbounds nuw %struct.SDL_Gamepad, ptr %35, i32 0, i32 11
  store ptr %34, ptr %36, align 8
  br label %41

37:                                               ; preds = %28
  %38 = load ptr, ptr %2, align 8
  %39 = getelementptr inbounds nuw %struct.SDL_Gamepad, ptr %38, i32 0, i32 11
  %40 = load ptr, ptr %39, align 8
  store ptr %40, ptr @SDL_gamepads, align 8
  br label %41

41:                                               ; preds = %37, %31
  br label %47

42:                                               ; preds = %24
  %43 = load ptr, ptr %3, align 8
  store ptr %43, ptr %4, align 8
  %44 = load ptr, ptr %3, align 8
  %45 = getelementptr inbounds nuw %struct.SDL_Gamepad, ptr %44, i32 0, i32 11
  %46 = load ptr, ptr %45, align 8
  store ptr %46, ptr %3, align 8
  br label %21, !llvm.loop !48

47:                                               ; preds = %41, %21
  %48 = load ptr, ptr %2, align 8
  call void @SDL_SetObjectValid(ptr noundef %48, i32 noundef 5, i1 noundef zeroext false)
  %49 = load ptr, ptr %2, align 8
  %50 = getelementptr inbounds nuw %struct.SDL_Gamepad, ptr %49, i32 0, i32 7
  %51 = load ptr, ptr %50, align 8
  call void @SDL_free_REAL(ptr noundef %51)
  %52 = load ptr, ptr %2, align 8
  %53 = getelementptr inbounds nuw %struct.SDL_Gamepad, ptr %52, i32 0, i32 8
  %54 = load ptr, ptr %53, align 8
  call void @SDL_free_REAL(ptr noundef %54)
  %55 = load ptr, ptr %2, align 8
  %56 = getelementptr inbounds nuw %struct.SDL_Gamepad, ptr %55, i32 0, i32 9
  %57 = load ptr, ptr %56, align 8
  call void @SDL_free_REAL(ptr noundef %57)
  %58 = load ptr, ptr %2, align 8
  call void @SDL_free_REAL(ptr noundef %58)
  call void @SDL_UnlockJoysticks_REAL()
  store i32 0, ptr %5, align 4
  br label %59

59:                                               ; preds = %47, %15, %8
  call void @llvm.lifetime.end.p0(i64 8, ptr %4) #8
  call void @llvm.lifetime.end.p0(i64 8, ptr %3) #8
  %60 = load i32, ptr %5, align 4
  switch i32 %60, label %62 [
    i32 0, label %61
    i32 1, label %61
  ]

61:                                               ; preds = %59, %59
  ret void

62:                                               ; preds = %59
  unreachable
}