; Function Attrs: nounwind uwtable
define hidden void @SDL_CloseGamepad_REAL(ptr noundef %0) local_unnamed_addr #0 {
  tail call void @SDL_LockJoysticks_REAL() #10
  %2 = tail call zeroext i1 @SDL_ObjectValid(ptr noundef %0, i32 noundef 5) #10
  br i1 %2, label %3, label %26

3:                                                ; preds = %1
  %4 = getelementptr inbounds nuw i8, ptr %0, i64 8
  %5 = load i32, ptr %4, align 8
  %6 = add nsw i32 %5, -1
  store i32 %6, ptr %4, align 8
  %7 = icmp sgt i32 %5, 1
  br i1 %7, label %26, label %8

8:                                                ; preds = %3
  %9 = load ptr, ptr %0, align 8
  tail call void @SDL_CloseJoystick_REAL(ptr noundef %9) #10
  %.01722 = load ptr, ptr @SDL_gamepads, align 8
  %.not23 = icmp eq ptr %.01722, null
  br i1 %.not23, label %.loopexit, label %.lr.ph.preheader

.lr.ph.preheader:                                 ; preds = %8
  %10 = icmp eq ptr %0, %.01722
  br i1 %10, label %.lr.ph._crit_edge, label %.lr.ph33

.lr.ph:                                           ; preds = %.lr.ph33
  %11 = icmp eq ptr %0, %.017
  br i1 %11, label %.lr.ph._crit_edge, label %.lr.ph33, !llvm.loop !57

.lr.ph._crit_edge:                                ; preds = %.lr.ph, %.lr.ph.preheader
  %.01725.lcssa = phi ptr [ %.01722, %.lr.ph.preheader ], [ %.017, %.lr.ph ]
  %.024.lcssa = phi ptr [ null, %.lr.ph.preheader ], [ %.0172532, %.lr.ph ]
  %.not19 = icmp eq ptr %.024.lcssa, null
  br i1 %.not19, label %16, label %12

12:                                               ; preds = %.lr.ph._crit_edge
  %13 = getelementptr inbounds nuw i8, ptr %.01725.lcssa, i64 80
  %14 = load ptr, ptr %13, align 8
  %15 = getelementptr inbounds nuw i8, ptr %.024.lcssa, i64 80
  store ptr %14, ptr %15, align 8
  br label %.loopexit

16:                                               ; preds = %.lr.ph._crit_edge
  %17 = getelementptr inbounds nuw i8, ptr %0, i64 80
  %18 = load ptr, ptr %17, align 8
  store ptr %18, ptr @SDL_gamepads, align 8
  br label %.loopexit

.lr.ph33:                                         ; preds = %.lr.ph.preheader, %.lr.ph
  %.0172532 = phi ptr [ %.017, %.lr.ph ], [ %.01722, %.lr.ph.preheader ]
  %19 = getelementptr inbounds nuw i8, ptr %.0172532, i64 80
  %.017 = load ptr, ptr %19, align 8
  %.not = icmp eq ptr %.017, null
  br i1 %.not, label %.loopexit, label %.lr.ph, !llvm.loop !57

.loopexit:                                        ; preds = %.lr.ph33, %8, %12, %16
  tail call void @SDL_SetObjectValid(ptr noundef nonnull %0, i32 noundef 5, i1 noundef zeroext false) #10
  %20 = getelementptr inbounds nuw i8, ptr %0, i64 48
  %21 = load ptr, ptr %20, align 8
  tail call void @SDL_free_REAL(ptr noundef %21) #10
  %22 = getelementptr inbounds nuw i8, ptr %0, i64 56
  %23 = load ptr, ptr %22, align 8
  tail call void @SDL_free_REAL(ptr noundef %23) #10
  %24 = getelementptr inbounds nuw i8, ptr %0, i64 64
  %25 = load ptr, ptr %24, align 8
  tail call void @SDL_free_REAL(ptr noundef %25) #10
  tail call void @SDL_free_REAL(ptr noundef nonnull %0) #10
  br label %26

26:                                               ; preds = %3, %1, %.loopexit
  tail call void @SDL_UnlockJoysticks_REAL() #10
  ret void
}